
main:     file format elf32-littleriscv


Disassembly of section .init:

00400000 <_start>:
  400000:	1fc18197          	auipc	gp,0x1fc18
  400004:	01018193          	addi	gp,gp,16 # 20018010 <__global_pointer$>
  400008:	7fbff117          	auipc	sp,0x7fbff
  40000c:	ff410113          	addi	sp,sp,-12 # 7fffeffc <__stack_top>
  400010:	00010433          	add	s0,sp,zero
  400014:	00328293          	addi	t0,t0,3
  400018:	00220213          	addi	tp,tp,2 # 2 <_start-0x3ffffe>
  40001c:	0042d463          	ble	tp,t0,400024 <test>

00400020 <ma>:
  400020:	018000ef          	jal	ra,400038 <main>

00400024 <test>:
  400024:	00258593          	addi	a1,a1,2
  400028:	fe05dce3          	bgez	a1,400020 <ma>

0040002c <el>:
  40002c:	0000006f          	j	40002c <el>
  400030:	00000013          	nop
  400034:	00000013          	nop

Disassembly of section .text:

00400038 <main>:
  400038:	100107b7          	lui	a5,0x10010
  40003c:	0187a503          	lw	a0,24(a5) # 10010018 <Li>
  400040:	100106b7          	lui	a3,0x10010
  400044:	10010637          	lui	a2,0x10010
  400048:	100105b7          	lui	a1,0x10010
  40004c:	ff010113          	addi	sp,sp,-16
  400050:	01c68693          	addi	a3,a3,28 # 1001001c <_edata>
  400054:	00060613          	mv	a2,a2
  400058:	01058593          	addi	a1,a1,16 # 10010010 <Lo>
  40005c:	00112623          	sw	ra,12(sp)
  400060:	014000ef          	jal	ra,400074 <maxx>
  400064:	00c12083          	lw	ra,12(sp)
  400068:	00000513          	li	a0,0
  40006c:	01010113          	addi	sp,sp,16
  400070:	00008067          	ret

00400074 <maxx>:
  400074:	0005a703          	lw	a4,0(a1)
  400078:	0045a783          	lw	a5,4(a1)
  40007c:	00e50533          	add	a0,a0,a4
  400080:	00462703          	lw	a4,4(a2) # 10010004 <sS+0x4>
  400084:	00f50833          	add	a6,a0,a5
  400088:	00062583          	lw	a1,0(a2)
  40008c:	00e80733          	add	a4,a6,a4
  400090:	00058893          	mv	a7,a1
  400094:	00e5d463          	ble	a4,a1,40009c <maxx+0x28>
  400098:	00070893          	mv	a7,a4
  40009c:	40e585b3          	sub	a1,a1,a4
  4000a0:	00f58593          	addi	a1,a1,15
  4000a4:	01e00713          	li	a4,30
  4000a8:	00b76463          	bltu	a4,a1,4000b0 <maxx+0x3c>
  4000ac:	00388893          	addi	a7,a7,3
  4000b0:	0116a023          	sw	a7,0(a3)
  4000b4:	00c62703          	lw	a4,12(a2)
  4000b8:	00862583          	lw	a1,8(a2)
  4000bc:	00e78733          	add	a4,a5,a4
  4000c0:	00b505b3          	add	a1,a0,a1
  4000c4:	00070893          	mv	a7,a4
  4000c8:	00b75463          	ble	a1,a4,4000d0 <maxx+0x5c>
  4000cc:	00058893          	mv	a7,a1
  4000d0:	40b70733          	sub	a4,a4,a1
  4000d4:	00f70713          	addi	a4,a4,15
  4000d8:	01e00593          	li	a1,30
  4000dc:	00e5e463          	bltu	a1,a4,4000e4 <maxx+0x70>
  4000e0:	00388893          	addi	a7,a7,3
  4000e4:	0116a223          	sw	a7,4(a3)
  4000e8:	00062583          	lw	a1,0(a2)
  4000ec:	00462703          	lw	a4,4(a2)
  4000f0:	00b805b3          	add	a1,a6,a1
  4000f4:	00070813          	mv	a6,a4
  4000f8:	00b75463          	ble	a1,a4,400100 <maxx+0x8c>
  4000fc:	00058813          	mv	a6,a1
  400100:	40b70733          	sub	a4,a4,a1
  400104:	00f70713          	addi	a4,a4,15
  400108:	01e00593          	li	a1,30
  40010c:	00e5e463          	bltu	a1,a4,400114 <maxx+0xa0>
  400110:	00380813          	addi	a6,a6,3
  400114:	0106a423          	sw	a6,8(a3)
  400118:	00c62703          	lw	a4,12(a2)
  40011c:	00862583          	lw	a1,8(a2)
  400120:	00e50533          	add	a0,a0,a4
  400124:	00b787b3          	add	a5,a5,a1
  400128:	00078713          	mv	a4,a5
  40012c:	00a7d463          	ble	a0,a5,400134 <maxx+0xc0>
  400130:	00050713          	mv	a4,a0
  400134:	40a787b3          	sub	a5,a5,a0
  400138:	00f78793          	addi	a5,a5,15
  40013c:	01e00613          	li	a2,30
  400140:	00f66463          	bltu	a2,a5,400148 <maxx+0xd4>
  400144:	00370713          	addi	a4,a4,3
  400148:	00e6a623          	sw	a4,12(a3)
  40014c:	00008067          	ret
